target datalayout = "e-m:e-p270:32:32-p271:32:32-p272:64:64-i64:64-i128:128-f80:128-n8:16:32:64-S128"
target triple = "x86_64-pc-linux-gnu"

%struct.AVProbeData = type { ptr, ptr, i32, ptr }

; Function Attrs: nounwind uwtable
define internal i32 @wsaud_probe(ptr noundef %0) #0 {
  %2 = alloca i32, align 4
  %3 = alloca ptr, align 8
  %4 = alloca i32, align 4
  %5 = alloca i32, align 4
  store ptr %0, ptr %3, align 8, !tbaa !4
  call void @llvm.lifetime.start.p0(i64 4, ptr %4) #3
  %6 = load ptr, ptr %3, align 8, !tbaa !4
  %7 = getelementptr inbounds nuw %struct.AVProbeData, ptr %6, i32 0, i32 2
  %8 = load i32, ptr %7, align 8, !tbaa !9
  %9 = icmp slt i32 %8, 20
  br i1 %9, label %10, label %11

10:                                               ; preds = %1
  store i32 0, ptr %2, align 4
  store i32 1, ptr %5, align 4
  br label %60

11:                                               ; preds = %1
  %12 = load ptr, ptr %3, align 8, !tbaa !4
  %13 = getelementptr inbounds nuw %struct.AVProbeData, ptr %12, i32 0, i32 1
  %14 = load ptr, ptr %13, align 8, !tbaa !13
  %15 = getelementptr inbounds i8, ptr %14, i64 0
  %16 = load i16, ptr %15, align 1, !tbaa !14
  %17 = zext i16 %16 to i32
  store i32 %17, ptr %4, align 4, !tbaa !15
  %18 = load i32, ptr %4, align 4, !tbaa !15
  %19 = icmp slt i32 %18, 8000
  br i1 %19, label %23, label %20

20:                                               ; preds = %11
  %21 = load i32, ptr %4, align 4, !tbaa !15
  %22 = icmp sgt i32 %21, 48000
  br i1 %22, label %23, label %24

23:                                               ; preds = %20, %11
  store i32 0, ptr %2, align 4
  store i32 1, ptr %5, align 4
  br label %60

24:                                               ; preds = %20
  %25 = load ptr, ptr %3, align 8, !tbaa !4
  %26 = getelementptr inbounds nuw %struct.AVProbeData, ptr %25, i32 0, i32 1
  %27 = load ptr, ptr %26, align 8, !tbaa !13
  %28 = getelementptr inbounds i8, ptr %27, i64 10
  %29 = load i8, ptr %28, align 1, !tbaa !14
  %30 = zext i8 %29 to i32
  %31 = and i32 %30, 252
  %32 = icmp ne i32 %31, 0
  br i1 %32, label %33, label %34

33:                                               ; preds = %24
  store i32 0, ptr %2, align 4
  store i32 1, ptr %5, align 4
  br label %60

34:                                               ; preds = %24
  %35 = load ptr, ptr %3, align 8, !tbaa !4
  %36 = getelementptr inbounds nuw %struct.AVProbeData, ptr %35, i32 0, i32 1
  %37 = load ptr, ptr %36, align 8, !tbaa !13
  %38 = getelementptr inbounds i8, ptr %37, i64 11
  %39 = load i8, ptr %38, align 1, !tbaa !14
  %40 = zext i8 %39 to i32
  %41 = icmp ne i32 %40, 99
  br i1 %41, label %42, label %51

42:                                               ; preds = %34
  %43 = load ptr, ptr %3, align 8, !tbaa !4
  %44 = getelementptr inbounds nuw %struct.AVProbeData, ptr %43, i32 0, i32 1
  %45 = load ptr, ptr %44, align 8, !tbaa !13
  %46 = getelementptr inbounds i8, ptr %45, i64 11
  %47 = load i8, ptr %46, align 1, !tbaa !14
  %48 = zext i8 %47 to i32
  %49 = icmp ne i32 %48, 1
  br i1 %49, label %50, label %51

50:                                               ; preds = %42
  store i32 0, ptr %2, align 4
  store i32 1, ptr %5, align 4
  br label %60

51:                                               ; preds = %42, %34
  %52 = load ptr, ptr %3, align 8, !tbaa !4
  %53 = getelementptr inbounds nuw %struct.AVProbeData, ptr %52, i32 0, i32 1
  %54 = load ptr, ptr %53, align 8, !tbaa !13
  %55 = getelementptr inbounds i8, ptr %54, i64 16
  %56 = load i32, ptr %55, align 1, !tbaa !14
  %57 = icmp ne i32 %56, 57007
  br i1 %57, label %58, label %59

58:                                               ; preds = %51
  store i32 0, ptr %2, align 4
  store i32 1, ptr %5, align 4
  br label %60

59:                                               ; preds = %51
  store i32 50, ptr %2, align 4
  store i32 1, ptr %5, align 4
  br label %60

60:                                               ; preds = %59, %58, %50, %33, %23, %10
  call void @llvm.lifetime.end.p0(i64 4, ptr %4) #3
  %61 = load i32, ptr %2, align 4
  ret i32 %61
}