; Function Attrs: mustprogress nofree norecurse nosync nounwind willreturn memory(read, inaccessiblemem: none) uwtable
define internal range(i32 0, 51) i32 @wsaud_probe(ptr noundef readonly captures(none) %0) #0 {
  %2 = getelementptr inbounds nuw i8, ptr %0, i64 16
  %3 = load i32, ptr %2, align 8, !tbaa !4
  %4 = icmp slt i32 %3, 20
  br i1 %4, label %19, label %5

5:                                                ; preds = %1
  %6 = getelementptr inbounds nuw i8, ptr %0, i64 8
  %7 = load ptr, ptr %6, align 8, !tbaa !11
  %8 = load i16, ptr %7, align 1, !tbaa !12
  %9 = add i16 %8, 17535
  %or.cond = icmp ult i16 %9, 25535
  br i1 %or.cond, label %19, label %10

10:                                               ; preds = %5
  %11 = getelementptr inbounds nuw i8, ptr %7, i64 10
  %12 = load i8, ptr %11, align 1, !tbaa !12
  %.not = icmp ult i8 %12, 4
  br i1 %.not, label %13, label %19

13:                                               ; preds = %10
  %14 = getelementptr inbounds nuw i8, ptr %7, i64 11
  %15 = load i8, ptr %14, align 1, !tbaa !12
  switch i8 %15, label %19 [
    i8 99, label %16
    i8 1, label %16
  ]

16:                                               ; preds = %13, %13
  %17 = getelementptr inbounds nuw i8, ptr %7, i64 16
  %18 = load i32, ptr %17, align 1, !tbaa !12
  %.not12 = icmp eq i32 %18, 57007
  %. = select i1 %.not12, i32 50, i32 0
  br label %19

19:                                               ; preds = %16, %13, %10, %5, %1
  %.0 = phi i32 [ 0, %1 ], [ 0, %5 ], [ 0, %10 ], [ 0, %13 ], [ %., %16 ]
  ret i32 %.0
}